target datalayout = "e-m:e-p270:32:32-p271:32:32-p272:64:64-i64:64-i128:128-f80:128-n8:16:32:64-S128"
target triple = "x86_64-pc-linux-gnu"

%"class.vcg::Point3" = type { [3 x float] }
%class.Point3Value = type <{ %class.Value, %"class.vcg::Point3", [4 x i8] }>
%class.Value = type { ptr }

; Function Attrs: mustprogress nounwind uwtable
define linkonce_odr noundef zeroext i1 @_ZNK3vcg6Point3IfEeqERKS1_(ptr noundef nonnull align 4 dereferenceable(12) %0, ptr noundef nonnull align 4 dereferenceable(12) %1) #0 comdat align 2 {
  %3 = alloca ptr, align 8
  %4 = alloca ptr, align 8
  store ptr %0, ptr %3, align 8
  store ptr %1, ptr %4, align 8
  %5 = load ptr, ptr %3, align 8
  %6 = getelementptr inbounds %"class.vcg::Point3", ptr %5, i32 0, i32 0
  %7 = getelementptr inbounds [3 x float], ptr %6, i64 0, i64 0
  %8 = load float, ptr %7, align 4
  %9 = load ptr, ptr %4, align 8
  %10 = getelementptr inbounds %"class.vcg::Point3", ptr %9, i32 0, i32 0
  %11 = getelementptr inbounds [3 x float], ptr %10, i64 0, i64 0
  %12 = load float, ptr %11, align 4
  %13 = fcmp oeq float %8, %12
  br i1 %13, label %14, label %32

14:                                               ; preds = %2
  %15 = getelementptr inbounds %"class.vcg::Point3", ptr %5, i32 0, i32 0
  %16 = getelementptr inbounds [3 x float], ptr %15, i64 0, i64 1
  %17 = load float, ptr %16, align 4
  %18 = load ptr, ptr %4, align 8
  %19 = getelementptr inbounds %"class.vcg::Point3", ptr %18, i32 0, i32 0
  %20 = getelementptr inbounds [3 x float], ptr %19, i64 0, i64 1
  %21 = load float, ptr %20, align 4
  %22 = fcmp oeq float %17, %21
  br i1 %22, label %23, label %32

23:                                               ; preds = %14
  %24 = getelementptr inbounds %"class.vcg::Point3", ptr %5, i32 0, i32 0
  %25 = getelementptr inbounds [3 x float], ptr %24, i64 0, i64 2
  %26 = load float, ptr %25, align 4
  %27 = load ptr, ptr %4, align 8
  %28 = getelementptr inbounds %"class.vcg::Point3", ptr %27, i32 0, i32 0
  %29 = getelementptr inbounds [3 x float], ptr %28, i64 0, i64 2
  %30 = load float, ptr %29, align 4
  %31 = fcmp oeq float %26, %30
  br label %32

32:                                               ; preds = %23, %14, %2
  %33 = phi i1 [ false, %14 ], [ false, %2 ], [ %31, %23 ]
  ret i1 %33
}

; Function Attrs: mustprogress uwtable
define noundef zeroext i1 @_ZNK11Point3ValueeqERK5Value(ptr noundef nonnull align 8 dereferenceable(20) %0, ptr noundef nonnull align 8 dereferenceable(8) %1) unnamed_addr #2 align 2 {
  %3 = alloca i1, align 1
  %4 = alloca ptr, align 8
  %5 = alloca ptr, align 8
  %6 = alloca %"class.vcg::Point3", align 4
  %7 = alloca { <2 x float>, float }, align 8
  store ptr %0, ptr %4, align 8
  store ptr %1, ptr %5, align 8
  %8 = load ptr, ptr %4, align 8
  %9 = load ptr, ptr %5, align 8
  %10 = load ptr, ptr %9, align 8
  %11 = getelementptr inbounds ptr, ptr %10, i64 15
  %12 = load ptr, ptr %11, align 8
  %13 = call noundef zeroext i1 %12(ptr noundef nonnull align 8 dereferenceable(8) %9)
  br i1 %13, label %14, label %23

14:                                               ; preds = %2
  %15 = getelementptr inbounds %class.Point3Value, ptr %8, i32 0, i32 1
  %16 = load ptr, ptr %5, align 8
  %17 = load ptr, ptr %16, align 8
  %18 = getelementptr inbounds ptr, ptr %17, i64 7
  %19 = load ptr, ptr %18, align 8
  %20 = call { <2 x float>, float } %19(ptr noundef nonnull align 8 dereferenceable(8) %16)
  %21 = getelementptr inbounds %"class.vcg::Point3", ptr %6, i32 0, i32 0
  store { <2 x float>, float } %20, ptr %7, align 8
  call void @llvm.memcpy.p0.p0.i64(ptr align 4 %21, ptr align 8 %7, i64 12, i1 false)
  %22 = call noundef zeroext i1 @_ZNK3vcg6Point3IfEeqERKS1_(ptr noundef nonnull align 4 dereferenceable(12) %15, ptr noundef nonnull align 4 dereferenceable(12) %6)
  store i1 %22, ptr %3, align 1
  br label %24

23:                                               ; preds = %2
  store i1 false, ptr %3, align 1
  br label %24

24:                                               ; preds = %23, %14
  %25 = load i1, ptr %3, align 1
  ret i1 %25
}