; Function Attrs: mustprogress uwtable
define noundef zeroext i1 @_ZNK11Point3ValueeqERK5Value(ptr nocapture noundef nonnull readonly align 8 dereferenceable(20) %0, ptr noundef nonnull align 8 dereferenceable(8) %1) unnamed_addr #4 align 2 {
  %3 = load ptr, ptr %1, align 8
  %4 = getelementptr inbounds i8, ptr %3, i64 120
  %5 = load ptr, ptr %4, align 8
  %6 = tail call noundef zeroext i1 %5(ptr noundef nonnull align 8 dereferenceable(8) %1)
  br i1 %6, label %7, label %_ZNK3vcg6Point3IfEeqERKS1_.exit

7:                                                ; preds = %2
  %8 = getelementptr inbounds i8, ptr %0, i64 8
  %9 = load ptr, ptr %1, align 8
  %10 = getelementptr inbounds i8, ptr %9, i64 56
  %11 = load ptr, ptr %10, align 8
  %12 = tail call { <2 x float>, float } %11(ptr noundef nonnull align 8 dereferenceable(8) %1)
  %.fca.0.extract = extractvalue { <2 x float>, float } %12, 0
  %13 = load float, ptr %8, align 8
  %.sroa.0.0.vec.extract = extractelement <2 x float> %.fca.0.extract, i64 0
  %14 = fcmp oeq float %13, %.sroa.0.0.vec.extract
  %15 = getelementptr inbounds i8, ptr %0, i64 12
  %16 = load float, ptr %15, align 4
  %.sroa.0.4.vec.extract = extractelement <2 x float> %.fca.0.extract, i64 1
  %17 = fcmp oeq float %16, %.sroa.0.4.vec.extract
  %or.cond = select i1 %14, i1 %17, i1 false
  br i1 %or.cond, label %18, label %_ZNK3vcg6Point3IfEeqERKS1_.exit

18:                                               ; preds = %7
  %.fca.1.extract = extractvalue { <2 x float>, float } %12, 1
  %19 = getelementptr inbounds i8, ptr %0, i64 16
  %20 = load float, ptr %19, align 8
  %21 = fcmp oeq float %20, %.fca.1.extract
  br label %_ZNK3vcg6Point3IfEeqERKS1_.exit

_ZNK3vcg6Point3IfEeqERKS1_.exit:                  ; preds = %18, %7, %2
  %.0 = phi i1 [ false, %2 ], [ false, %7 ], [ %21, %18 ]
  ret i1 %.0
}